target datalayout = "e-m:e-p270:32:32-p271:32:32-p272:64:64-i64:64-i128:128-f80:128-n8:16:32:64-S128"
target triple = "x86_64-pc-linux-gnu"

@__const.ecc_test_raw_enc_dec.sOne = private unnamed_addr constant [3 x i8] c"\00\00\01", align 1
@__const.ecc_test_raw_enc_dec.expSig = private unnamed_addr constant [8 x i8] c"0\06\02\01\00\02\01\01", align 1

; Function Attrs: nounwind uwtable
define internal i32 @ecc_test_raw_enc_dec() #0 {
  %1 = alloca i32, align 4
  %2 = alloca i32, align 4
  %3 = alloca [1 x i8], align 1
  %4 = alloca i32, align 4
  %5 = alloca [1 x i8], align 1
  %6 = alloca i32, align 4
  %7 = alloca [4 x i8], align 1
  %8 = alloca [3 x i8], align 1
  %9 = alloca [32 x i8], align 16
  %10 = alloca i32, align 4
  %11 = alloca [8 x i8], align 1
  %12 = alloca i32, align 4
  call void @llvm.lifetime.start.p0(i64 4, ptr %2) #10
  call void @llvm.lifetime.start.p0(i64 1, ptr %3) #10
  call void @llvm.lifetime.start.p0(i64 4, ptr %4) #10
  call void @llvm.lifetime.start.p0(i64 1, ptr %5) #10
  call void @llvm.lifetime.start.p0(i64 4, ptr %6) #10
  call void @llvm.lifetime.start.p0(i64 4, ptr %7) #10
  call void @llvm.memset.p0.i64(ptr align 1 %7, i8 0, i64 4, i1 false)
  call void @llvm.lifetime.start.p0(i64 3, ptr %8) #10
  call void @llvm.memcpy.p0.p0.i64(ptr align 1 %8, ptr align 1 @__const.ecc_test_raw_enc_dec.sOne, i64 3, i1 false)
  call void @llvm.lifetime.start.p0(i64 32, ptr %9) #10
  call void @llvm.lifetime.start.p0(i64 4, ptr %10) #10
  call void @llvm.lifetime.start.p0(i64 8, ptr %11) #10
  call void @llvm.memcpy.p0.p0.i64(ptr align 1 %11, ptr align 1 @__const.ecc_test_raw_enc_dec.expSig, i64 8, i1 false)
  store i32 32, ptr %10, align 4, !tbaa !14
  %13 = getelementptr inbounds [4 x i8], ptr %7, i64 0, i64 0
  %14 = getelementptr inbounds [3 x i8], ptr %8, i64 0, i64 0
  %15 = getelementptr inbounds [32 x i8], ptr %9, i64 0, i64 0
  %16 = call i32 @wc_ecc_rs_raw_to_sig(ptr noundef %13, i32 noundef 4, ptr noundef %14, i32 noundef 3, ptr noundef %15, ptr noundef %10)
  store i32 %16, ptr %2, align 4, !tbaa !14
  %17 = load i32, ptr %2, align 4, !tbaa !14
  %18 = icmp ne i32 %17, 0
  br i1 %18, label %19, label %31

19:                                               ; preds = %0
  %20 = load i32, ptr %2, align 4, !tbaa !14
  %21 = sub nsw i32 0, %20
  %22 = zext i32 %21 to i64
  %23 = and i64 %22, 2047
  %24 = trunc i64 %23 to i32
  %25 = sext i32 %24 to i64
  %26 = mul nsw i64 %25, 100000
  %27 = add nsw i64 33729, %26
  %28 = add nsw i64 %27, 536870912
  %29 = sub nsw i64 0, %28
  %30 = trunc i64 %29 to i32
  store i32 %30, ptr %1, align 4
  store i32 1, ptr %12, align 4
  br label %143

31:                                               ; preds = %0
  %32 = load i32, ptr %10, align 4, !tbaa !14
  %33 = zext i32 %32 to i64
  %34 = icmp ne i64 %33, 8
  br i1 %34, label %35, label %47

35:                                               ; preds = %31
  %36 = load i32, ptr %10, align 4, !tbaa !14
  %37 = sub nsw i32 0, %36
  %38 = zext i32 %37 to i64
  %39 = and i64 %38, 2047
  %40 = trunc i64 %39 to i32
  %41 = sext i32 %40 to i64
  %42 = mul nsw i64 %41, 100000
  %43 = add nsw i64 33732, %42
  %44 = add nsw i64 %43, 536870912
  %45 = sub nsw i64 0, %44
  %46 = trunc i64 %45 to i32
  store i32 %46, ptr %1, align 4
  store i32 1, ptr %12, align 4
  br label %143

47:                                               ; preds = %31
  %48 = getelementptr inbounds [32 x i8], ptr %9, i64 0, i64 0
  %49 = getelementptr inbounds [8 x i8], ptr %11, i64 0, i64 0
  %50 = call i32 @memcmp(ptr noundef %48, ptr noundef %49, i64 noundef 8) #11
  %51 = icmp ne i32 %50, 0
  br i1 %51, label %52, label %53

52:                                               ; preds = %47
  store i32 -33735, ptr %1, align 4
  store i32 1, ptr %12, align 4
  br label %143

53:                                               ; preds = %47
  store i32 1, ptr %4, align 4, !tbaa !14
  store i32 1, ptr %6, align 4, !tbaa !14
  %54 = getelementptr inbounds [32 x i8], ptr %9, i64 0, i64 0
  %55 = load i32, ptr %10, align 4, !tbaa !14
  %56 = getelementptr inbounds [1 x i8], ptr %3, i64 0, i64 0
  %57 = getelementptr inbounds [1 x i8], ptr %5, i64 0, i64 0
  %58 = call i32 @wc_ecc_sig_to_rs(ptr noundef %54, i32 noundef %55, ptr noundef %56, ptr noundef %4, ptr noundef %57, ptr noundef %6)
  store i32 %58, ptr %2, align 4, !tbaa !14
  %59 = load i32, ptr %2, align 4, !tbaa !14
  %60 = icmp ne i32 %59, 0
  br i1 %60, label %61, label %73

61:                                               ; preds = %53
  %62 = load i32, ptr %2, align 4, !tbaa !14
  %63 = sub nsw i32 0, %62
  %64 = zext i32 %63 to i64
  %65 = and i64 %64, 2047
  %66 = trunc i64 %65 to i32
  %67 = sext i32 %66 to i64
  %68 = mul nsw i64 %67, 100000
  %69 = add nsw i64 33742, %68
  %70 = add nsw i64 %69, 536870912
  %71 = sub nsw i64 0, %70
  %72 = trunc i64 %71 to i32
  store i32 %72, ptr %1, align 4
  store i32 1, ptr %12, align 4
  br label %143

73:                                               ; preds = %53
  %74 = load i32, ptr %4, align 4, !tbaa !14
  %75 = icmp ne i32 %74, 1
  br i1 %75, label %76, label %88

76:                                               ; preds = %73
  %77 = load i32, ptr %4, align 4, !tbaa !14
  %78 = sub nsw i32 0, %77
  %79 = zext i32 %78 to i64
  %80 = and i64 %79, 2047
  %81 = trunc i64 %80 to i32
  %82 = sext i32 %81 to i64
  %83 = mul nsw i64 %82, 100000
  %84 = add nsw i64 33745, %83
  %85 = add nsw i64 %84, 536870912
  %86 = sub nsw i64 0, %85
  %87 = trunc i64 %86 to i32
  store i32 %87, ptr %1, align 4
  store i32 1, ptr %12, align 4
  br label %143

88:                                               ; preds = %73
  %89 = load i32, ptr %6, align 4, !tbaa !14
  %90 = icmp ne i32 %89, 1
  br i1 %90, label %91, label %103

91:                                               ; preds = %88
  %92 = load i32, ptr %6, align 4, !tbaa !14
  %93 = sub nsw i32 0, %92
  %94 = zext i32 %93 to i64
  %95 = and i64 %94, 2047
  %96 = trunc i64 %95 to i32
  %97 = sext i32 %96 to i64
  %98 = mul nsw i64 %97, 100000
  %99 = add nsw i64 33748, %98
  %100 = add nsw i64 %99, 536870912
  %101 = sub nsw i64 0, %100
  %102 = trunc i64 %101 to i32
  store i32 %102, ptr %1, align 4
  store i32 1, ptr %12, align 4
  br label %143

103:                                              ; preds = %88
  %104 = getelementptr inbounds [1 x i8], ptr %3, i64 0, i64 0
  %105 = load i8, ptr %104, align 1, !tbaa !24
  %106 = zext i8 %105 to i32
  %107 = icmp ne i32 %106, 0
  br i1 %107, label %108, label %122

108:                                              ; preds = %103
  %109 = getelementptr inbounds [1 x i8], ptr %3, i64 0, i64 0
  %110 = load i8, ptr %109, align 1, !tbaa !24
  %111 = zext i8 %110 to i32
  %112 = sub nsw i32 0, %111
  %113 = zext i32 %112 to i64
  %114 = and i64 %113, 2047
  %115 = trunc i64 %114 to i32
  %116 = sext i32 %115 to i64
  %117 = mul nsw i64 %116, 100000
  %118 = add nsw i64 33751, %117
  %119 = add nsw i64 %118, 536870912
  %120 = sub nsw i64 0, %119
  %121 = trunc i64 %120 to i32
  store i32 %121, ptr %1, align 4
  store i32 1, ptr %12, align 4
  br label %143

122:                                              ; preds = %103
  %123 = getelementptr inbounds [1 x i8], ptr %5, i64 0, i64 0
  %124 = load i8, ptr %123, align 1, !tbaa !24
  %125 = zext i8 %124 to i32
  %126 = icmp ne i32 %125, 1
  br i1 %126, label %127, label %141

127:                                              ; preds = %122
  %128 = getelementptr inbounds [1 x i8], ptr %5, i64 0, i64 0
  %129 = load i8, ptr %128, align 1, !tbaa !24
  %130 = zext i8 %129 to i32
  %131 = sub nsw i32 0, %130
  %132 = zext i32 %131 to i64
  %133 = and i64 %132, 2047
  %134 = trunc i64 %133 to i32
  %135 = sext i32 %134 to i64
  %136 = mul nsw i64 %135, 100000
  %137 = add nsw i64 33754, %136
  %138 = add nsw i64 %137, 536870912
  %139 = sub nsw i64 0, %138
  %140 = trunc i64 %139 to i32
  store i32 %140, ptr %1, align 4
  store i32 1, ptr %12, align 4
  br label %143

141:                                              ; preds = %122
  %142 = load i32, ptr %2, align 4, !tbaa !14
  store i32 %142, ptr %1, align 4
  store i32 1, ptr %12, align 4
  br label %143

143:                                              ; preds = %141, %127, %108, %91, %76, %61, %52, %35, %19
  call void @llvm.lifetime.end.p0(i64 8, ptr %11) #10
  call void @llvm.lifetime.end.p0(i64 4, ptr %10) #10
  call void @llvm.lifetime.end.p0(i64 32, ptr %9) #10
  call void @llvm.lifetime.end.p0(i64 3, ptr %8) #10
  call void @llvm.lifetime.end.p0(i64 4, ptr %7) #10
  call void @llvm.lifetime.end.p0(i64 4, ptr %6) #10
  call void @llvm.lifetime.end.p0(i64 1, ptr %5) #10
  call void @llvm.lifetime.end.p0(i64 4, ptr %4) #10
  call void @llvm.lifetime.end.p0(i64 1, ptr %3) #10
  call void @llvm.lifetime.end.p0(i64 4, ptr %2) #10
  %144 = load i32, ptr %1, align 4
  ret i32 %144
}