; Function Attrs: nounwind uwtable
define internal fastcc range(i32 -741604666, 1) i32 @ecc_test_raw_enc_dec() unnamed_addr #0 {
  %1 = alloca [1 x i8], align 1
  %2 = alloca i32, align 4
  %3 = alloca [1 x i8], align 1
  %4 = alloca i32, align 4
  %5 = alloca [4 x i8], align 4
  %6 = alloca [3 x i8], align 1
  %7 = alloca [32 x i8], align 16
  %8 = alloca i32, align 4
  call void @llvm.lifetime.start.p0(i64 1, ptr nonnull %1) #19
  call void @llvm.lifetime.start.p0(i64 4, ptr nonnull %2) #19
  call void @llvm.lifetime.start.p0(i64 1, ptr nonnull %3) #19
  call void @llvm.lifetime.start.p0(i64 4, ptr nonnull %4) #19
  call void @llvm.lifetime.start.p0(i64 4, ptr nonnull %5) #19
  store i32 0, ptr %5, align 4
  call void @llvm.lifetime.start.p0(i64 3, ptr nonnull %6) #19
  call void @llvm.memcpy.p0.p0.i64(ptr noundef nonnull align 1 dereferenceable(3) %6, ptr noundef nonnull align 1 dereferenceable(3) @__const.ecc_test_raw_enc_dec.sOne, i64 3, i1 false)
  call void @llvm.lifetime.start.p0(i64 32, ptr nonnull %7) #19
  call void @llvm.lifetime.start.p0(i64 4, ptr nonnull %8) #19
  store i32 32, ptr %8, align 4, !tbaa !22
  %9 = call i32 @wc_ecc_rs_raw_to_sig(ptr noundef nonnull %5, i32 noundef 4, ptr noundef nonnull %6, i32 noundef 3, ptr noundef nonnull %7, ptr noundef nonnull %8) #19
  %.not = icmp eq i32 %9, 0
  br i1 %.not, label %14, label %10

10:                                               ; preds = %0
  %11 = sub nsw i32 0, %9
  %12 = and i32 %11, 2047
  %narrow.neg33 = mul nsw i32 %12, -100000
  %13 = add nsw i32 %narrow.neg33, -536904641
  br label %53

14:                                               ; preds = %0
  %15 = load i32, ptr %8, align 4, !tbaa !22
  %.not12 = icmp eq i32 %15, 8
  br i1 %.not12, label %20, label %16

16:                                               ; preds = %14
  %17 = sub nsw i32 0, %15
  %18 = and i32 %17, 2047
  %narrow.neg30 = mul nsw i32 %18, -100000
  %19 = add nsw i32 %narrow.neg30, -536904644
  br label %53

20:                                               ; preds = %14
  %lhsv = load i64, ptr %7, align 16
  %.not13 = icmp eq i64 %lhsv, 72341268054804016
  br i1 %.not13, label %21, label %53

21:                                               ; preds = %20
  store i32 1, ptr %2, align 4, !tbaa !22
  store i32 1, ptr %4, align 4, !tbaa !22
  %22 = call i32 @wc_ecc_sig_to_rs(ptr noundef nonnull %7, i32 noundef 8, ptr noundef nonnull %1, ptr noundef nonnull %2, ptr noundef nonnull %3, ptr noundef nonnull %4) #19
  %.not14 = icmp eq i32 %22, 0
  br i1 %.not14, label %27, label %23

23:                                               ; preds = %21
  %24 = sub nsw i32 0, %22
  %25 = and i32 %24, 2047
  %narrow.neg27 = mul nsw i32 %25, -100000
  %26 = add nsw i32 %narrow.neg27, -536904654
  br label %53

27:                                               ; preds = %21
  %28 = load i32, ptr %2, align 4, !tbaa !22
  %.not15 = icmp eq i32 %28, 1
  br i1 %.not15, label %33, label %29

29:                                               ; preds = %27
  %30 = sub nsw i32 0, %28
  %31 = and i32 %30, 2047
  %narrow.neg24 = mul nsw i32 %31, -100000
  %32 = add nsw i32 %narrow.neg24, -536904657
  br label %53

33:                                               ; preds = %27
  %34 = load i32, ptr %4, align 4, !tbaa !22
  %.not16 = icmp eq i32 %34, 1
  br i1 %.not16, label %39, label %35

35:                                               ; preds = %33
  %36 = sub nsw i32 0, %34
  %37 = and i32 %36, 2047
  %narrow.neg = mul nsw i32 %37, -100000
  %38 = add nsw i32 %narrow.neg, -536904660
  br label %53

39:                                               ; preds = %33
  %40 = load i8, ptr %1, align 1, !tbaa !19
  %.not17 = icmp eq i8 %40, 0
  br i1 %.not17, label %46, label %41

41:                                               ; preds = %39
  %42 = zext i8 %40 to i32
  %43 = sub nsw i32 0, %42
  %44 = and i32 %43, 2047
  %.neg19 = mul nsw i32 %44, -100000
  %45 = add nsw i32 %.neg19, -536904663
  br label %53

46:                                               ; preds = %39
  %47 = load i8, ptr %3, align 1, !tbaa !19
  %.not18 = icmp eq i8 %47, 1
  br i1 %.not18, label %53, label %48

48:                                               ; preds = %46
  %49 = zext i8 %47 to i32
  %50 = sub nsw i32 0, %49
  %51 = and i32 %50, 2047
  %.neg = mul nsw i32 %51, -100000
  %52 = add nsw i32 %.neg, -536904666
  br label %53

53:                                               ; preds = %46, %20, %48, %41, %35, %29, %23, %16, %10
  %.0 = phi i32 [ %13, %10 ], [ %19, %16 ], [ %26, %23 ], [ %32, %29 ], [ %38, %35 ], [ %45, %41 ], [ %52, %48 ], [ -33735, %20 ], [ 0, %46 ]
  call void @llvm.lifetime.end.p0(i64 4, ptr nonnull %8) #19
  call void @llvm.lifetime.end.p0(i64 32, ptr nonnull %7) #19
  call void @llvm.lifetime.end.p0(i64 3, ptr nonnull %6) #19
  call void @llvm.lifetime.end.p0(i64 4, ptr nonnull %5) #19
  call void @llvm.lifetime.end.p0(i64 4, ptr nonnull %4) #19
  call void @llvm.lifetime.end.p0(i64 1, ptr nonnull %3) #19
  call void @llvm.lifetime.end.p0(i64 4, ptr nonnull %2) #19
  call void @llvm.lifetime.end.p0(i64 1, ptr nonnull %1) #19
  ret i32 %.0
}